target datalayout = "e-m:e-p270:32:32-p271:32:32-p272:64:64-i64:64-i128:128-f80:128-n8:16:32:64-S128"
target triple = "x86_64-pc-linux-gnu"

%struct.Dec_Edge_t_ = type { i32 }
%struct.MvcCoverStruct = type { i32, i32, i32, %struct.MvcListStruct, ptr, i32, ptr, ptr, ptr }
%struct.MvcListStruct = type { ptr, ptr, i32 }
%struct.MvcCubeStruct = type { ptr, i32, i32, [1 x i32] }
%struct.Vec_Int_t_ = type { i32, i32, ptr }
%union.anon.0 = type { %struct.Dec_Edge_t_ }

; Function Attrs: inlinehint nounwind uwtable
define internal void @Vec_IntGrow(ptr noundef %0, i32 noundef %1) #3 {
  %3 = alloca ptr, align 8
  %4 = alloca i32, align 4
  store ptr %0, ptr %3, align 8, !tbaa !47
  store i32 %1, ptr %4, align 4, !tbaa !22
  %5 = load ptr, ptr %3, align 8, !tbaa !47
  %6 = getelementptr inbounds nuw %struct.Vec_Int_t_, ptr %5, i32 0, i32 0
  %7 = load i32, ptr %6, align 8, !tbaa !60
  %8 = load i32, ptr %4, align 4, !tbaa !22
  %9 = icmp sge i32 %7, %8
  br i1 %9, label %10, label %11

10:                                               ; preds = %2
  br label %36

11:                                               ; preds = %2
  %12 = load ptr, ptr %3, align 8, !tbaa !47
  %13 = getelementptr inbounds nuw %struct.Vec_Int_t_, ptr %12, i32 0, i32 2
  %14 = load ptr, ptr %13, align 8, !tbaa !54
  %15 = icmp ne ptr %14, null
  br i1 %15, label %16, label %24

16:                                               ; preds = %11
  %17 = load ptr, ptr %3, align 8, !tbaa !47
  %18 = getelementptr inbounds nuw %struct.Vec_Int_t_, ptr %17, i32 0, i32 2
  %19 = load ptr, ptr %18, align 8, !tbaa !54
  %20 = load i32, ptr %4, align 4, !tbaa !22
  %21 = sext i32 %20 to i64
  %22 = mul i64 4, %21
  %23 = call ptr @realloc(ptr noundef %19, i64 noundef %22) #10
  br label %29

24:                                               ; preds = %11
  %25 = load i32, ptr %4, align 4, !tbaa !22
  %26 = sext i32 %25 to i64
  %27 = mul i64 4, %26
  %28 = call noalias ptr @malloc(i64 noundef %27) #9
  br label %29

29:                                               ; preds = %24, %16
  %30 = phi ptr [ %23, %16 ], [ %28, %24 ]
  %31 = load ptr, ptr %3, align 8, !tbaa !47
  %32 = getelementptr inbounds nuw %struct.Vec_Int_t_, ptr %31, i32 0, i32 2
  store ptr %30, ptr %32, align 8, !tbaa !54
  %33 = load i32, ptr %4, align 4, !tbaa !22
  %34 = load ptr, ptr %3, align 8, !tbaa !47
  %35 = getelementptr inbounds nuw %struct.Vec_Int_t_, ptr %34, i32 0, i32 0
  store i32 %33, ptr %35, align 8, !tbaa !60
  br label %36

36:                                               ; preds = %29, %10
  ret void
}

; Function Attrs: inlinehint nounwind uwtable
define internal void @Vec_IntPush(ptr noundef %0, i32 noundef %1) #3 {
  %3 = alloca ptr, align 8
  %4 = alloca i32, align 4
  store ptr %0, ptr %3, align 8, !tbaa !47
  store i32 %1, ptr %4, align 4, !tbaa !22
  %5 = load ptr, ptr %3, align 8, !tbaa !47
  %6 = getelementptr inbounds nuw %struct.Vec_Int_t_, ptr %5, i32 0, i32 1
  %7 = load i32, ptr %6, align 4, !tbaa !56
  %8 = load ptr, ptr %3, align 8, !tbaa !47
  %9 = getelementptr inbounds nuw %struct.Vec_Int_t_, ptr %8, i32 0, i32 0
  %10 = load i32, ptr %9, align 8, !tbaa !60
  %11 = icmp eq i32 %7, %10
  br i1 %11, label %12, label %26

12:                                               ; preds = %2
  %13 = load ptr, ptr %3, align 8, !tbaa !47
  %14 = getelementptr inbounds nuw %struct.Vec_Int_t_, ptr %13, i32 0, i32 0
  %15 = load i32, ptr %14, align 8, !tbaa !60
  %16 = icmp slt i32 %15, 16
  br i1 %16, label %17, label %19

17:                                               ; preds = %12
  %18 = load ptr, ptr %3, align 8, !tbaa !47
  call void @Vec_IntGrow(ptr noundef %18, i32 noundef 16)
  br label %25

19:                                               ; preds = %12
  %20 = load ptr, ptr %3, align 8, !tbaa !47
  %21 = load ptr, ptr %3, align 8, !tbaa !47
  %22 = getelementptr inbounds nuw %struct.Vec_Int_t_, ptr %21, i32 0, i32 0
  %23 = load i32, ptr %22, align 8, !tbaa !60
  %24 = mul nsw i32 2, %23
  call void @Vec_IntGrow(ptr noundef %20, i32 noundef %24)
  br label %25

25:                                               ; preds = %19, %17
  br label %26

26:                                               ; preds = %25, %2
  %27 = load i32, ptr %4, align 4, !tbaa !22
  %28 = load ptr, ptr %3, align 8, !tbaa !47
  %29 = getelementptr inbounds nuw %struct.Vec_Int_t_, ptr %28, i32 0, i32 2
  %30 = load ptr, ptr %29, align 8, !tbaa !54
  %31 = load ptr, ptr %3, align 8, !tbaa !47
  %32 = getelementptr inbounds nuw %struct.Vec_Int_t_, ptr %31, i32 0, i32 1
  %33 = load i32, ptr %32, align 4, !tbaa !56
  %34 = add nsw i32 %33, 1
  store i32 %34, ptr %32, align 4, !tbaa !56
  %35 = sext i32 %33 to i64
  %36 = getelementptr inbounds i32, ptr %30, i64 %35
  store i32 %27, ptr %36, align 4, !tbaa !22
  ret void
}

; Function Attrs: inlinehint nounwind uwtable
define internal i32 @Dec_EdgeToInt_(i32 %0) #3 {
  %2 = alloca %struct.Dec_Edge_t_, align 4
  %3 = alloca %union.anon.0, align 4
  %4 = getelementptr inbounds nuw %struct.Dec_Edge_t_, ptr %2, i32 0, i32 0
  store i32 %0, ptr %4, align 4
  call void @llvm.lifetime.start.p0(i64 4, ptr %3) #8
  call void @llvm.memcpy.p0.p0.i64(ptr align 4 %3, ptr align 4 %2, i64 4, i1 false), !tbaa.struct !12
  %5 = load i32, ptr %3, align 4, !tbaa !13
  call void @llvm.lifetime.end.p0(i64 4, ptr %3) #8
  ret i32 %5
}

; Function Attrs: inlinehint nounwind uwtable
define internal i32 @Dec_EdgeCreate(i32 noundef %0, i32 noundef %1) #3 {
  %3 = alloca %struct.Dec_Edge_t_, align 4
  %4 = alloca i32, align 4
  %5 = alloca i32, align 4
  store i32 %0, ptr %4, align 4, !tbaa !22
  store i32 %1, ptr %5, align 4, !tbaa !22
  store i32 0, ptr %3, align 4
  %6 = load i32, ptr %5, align 4, !tbaa !22
  %7 = load i32, ptr %3, align 4
  %8 = and i32 %6, 1
  %9 = and i32 %7, -2
  %10 = or i32 %9, %8
  store i32 %10, ptr %3, align 4
  %11 = load i32, ptr %4, align 4, !tbaa !22
  %12 = load i32, ptr %3, align 4
  %13 = and i32 %11, 1073741823
  %14 = shl i32 %13, 1
  %15 = and i32 %12, -2147483647
  %16 = or i32 %15, %14
  store i32 %16, ptr %3, align 4
  %17 = getelementptr inbounds nuw %struct.Dec_Edge_t_, ptr %3, i32 0, i32 0
  %18 = load i32, ptr %17, align 4
  ret i32 %18
}

; Function Attrs: inlinehint nounwind uwtable
define internal void @Vec_IntClear(ptr noundef %0) #3 {
  %2 = alloca ptr, align 8
  store ptr %0, ptr %2, align 8, !tbaa !47
  %3 = load ptr, ptr %2, align 8, !tbaa !47
  %4 = getelementptr inbounds nuw %struct.Vec_Int_t_, ptr %3, i32 0, i32 1
  store i32 0, ptr %4, align 4, !tbaa !56
  ret void
}

; Function Attrs: nounwind uwtable
define internal i32 @Dec_FactorTrivialCube(ptr noundef %0, ptr noundef %1, ptr noundef %2, ptr noundef %3) #0 {
  %5 = alloca %struct.Dec_Edge_t_, align 4
  %6 = alloca ptr, align 8
  %7 = alloca ptr, align 8
  %8 = alloca ptr, align 8
  %9 = alloca ptr, align 8
  %10 = alloca %struct.Dec_Edge_t_, align 4
  %11 = alloca i32, align 4
  %12 = alloca i32, align 4
  %13 = alloca %struct.Dec_Edge_t_, align 4
  store ptr %0, ptr %6, align 8, !tbaa !10
  store ptr %1, ptr %7, align 8, !tbaa !8
  store ptr %2, ptr %8, align 8, !tbaa !24
  store ptr %3, ptr %9, align 8, !tbaa !47
  call void @llvm.lifetime.start.p0(i64 4, ptr %10) #8
  call void @llvm.lifetime.start.p0(i64 4, ptr %11) #8
  call void @llvm.lifetime.start.p0(i64 4, ptr %12) #8
  %14 = load ptr, ptr %9, align 8, !tbaa !47
  call void @Vec_IntClear(ptr noundef %14)
  store i32 0, ptr %11, align 4, !tbaa !22
  br label %15

15:                                               ; preds = %52, %4
  %16 = load i32, ptr %11, align 4, !tbaa !22
  %17 = load ptr, ptr %7, align 8, !tbaa !8
  %18 = getelementptr inbounds nuw %struct.MvcCoverStruct, ptr %17, i32 0, i32 2
  %19 = load i32, ptr %18, align 8, !tbaa !58
  %20 = icmp slt i32 %16, %19
  br i1 %20, label %21, label %35

21:                                               ; preds = %15
  %22 = load ptr, ptr %8, align 8, !tbaa !24
  %23 = getelementptr inbounds nuw %struct.MvcCubeStruct, ptr %22, i32 0, i32 3
  %24 = load i32, ptr %11, align 4, !tbaa !22
  %25 = ashr i32 %24, 5
  %26 = sext i32 %25 to i64
  %27 = getelementptr inbounds [1 x i32], ptr %23, i64 0, i64 %26
  %28 = load i32, ptr %27, align 4, !tbaa !22
  %29 = load i32, ptr %11, align 4, !tbaa !22
  %30 = and i32 %29, 31
  %31 = shl i32 1, %30
  %32 = and i32 %28, %31
  %33 = icmp ugt i32 %32, 0
  %34 = zext i1 %33 to i32
  store i32 %34, ptr %12, align 4, !tbaa !22
  br label %35

35:                                               ; preds = %21, %15
  %36 = phi i1 [ false, %15 ], [ true, %21 ]
  br i1 %36, label %37, label %55

37:                                               ; preds = %35
  %38 = load i32, ptr %12, align 4, !tbaa !22
  %39 = icmp ne i32 %38, 0
  br i1 %39, label %40, label %51

40:                                               ; preds = %37
  call void @llvm.lifetime.start.p0(i64 4, ptr %13) #8
  %41 = load i32, ptr %11, align 4, !tbaa !22
  %42 = sdiv i32 %41, 2
  %43 = load i32, ptr %11, align 4, !tbaa !22
  %44 = srem i32 %43, 2
  %45 = call i32 @Dec_EdgeCreate(i32 noundef %42, i32 noundef %44)
  %46 = getelementptr inbounds nuw %struct.Dec_Edge_t_, ptr %13, i32 0, i32 0
  store i32 %45, ptr %46, align 4
  call void @llvm.memcpy.p0.p0.i64(ptr align 4 %10, ptr align 4 %13, i64 4, i1 false), !tbaa.struct !12
  call void @llvm.lifetime.end.p0(i64 4, ptr %13) #8
  %47 = load ptr, ptr %9, align 8, !tbaa !47
  %48 = getelementptr inbounds nuw %struct.Dec_Edge_t_, ptr %10, i32 0, i32 0
  %49 = load i32, ptr %48, align 4
  %50 = call i32 @Dec_EdgeToInt_(i32 %49)
  call void @Vec_IntPush(ptr noundef %47, i32 noundef %50)
  br label %51

51:                                               ; preds = %40, %37
  br label %52

52:                                               ; preds = %51
  %53 = load i32, ptr %11, align 4, !tbaa !22
  %54 = add nsw i32 %53, 1
  store i32 %54, ptr %11, align 4, !tbaa !22
  br label %15, !llvm.loop !59

55:                                               ; preds = %35
  %56 = load ptr, ptr %6, align 8, !tbaa !10
  %57 = load ptr, ptr %9, align 8, !tbaa !47
  %58 = getelementptr inbounds nuw %struct.Vec_Int_t_, ptr %57, i32 0, i32 2
  %59 = load ptr, ptr %58, align 8, !tbaa !54
  %60 = load ptr, ptr %9, align 8, !tbaa !47
  %61 = getelementptr inbounds nuw %struct.Vec_Int_t_, ptr %60, i32 0, i32 1
  %62 = load i32, ptr %61, align 4, !tbaa !56
  %63 = call i32 @Dec_FactorTrivialTree_rec(ptr noundef %56, ptr noundef %59, i32 noundef %62, i32 noundef 0)
  %64 = getelementptr inbounds nuw %struct.Dec_Edge_t_, ptr %5, i32 0, i32 0
  store i32 %63, ptr %64, align 4
  call void @llvm.lifetime.end.p0(i64 4, ptr %12) #8
  call void @llvm.lifetime.end.p0(i64 4, ptr %11) #8
  call void @llvm.lifetime.end.p0(i64 4, ptr %10) #8
  %65 = getelementptr inbounds nuw %struct.Dec_Edge_t_, ptr %5, i32 0, i32 0
  %66 = load i32, ptr %65, align 4
  ret i32 %66
}