; Function Attrs: nounwind uwtable
define internal fastcc i32 @Dec_FactorTrivialCube(ptr noundef %0, ptr noundef readonly captures(none) %1, ptr noundef readonly captures(none) %2, ptr noundef captures(none) initializes((4, 8)) %3) unnamed_addr #0 {
  %5 = getelementptr inbounds nuw i8, ptr %3, i64 4
  store i32 0, ptr %5, align 4, !tbaa !36
  %6 = getelementptr inbounds nuw i8, ptr %1, i64 8
  %7 = load i32, ptr %6, align 8, !tbaa !43
  %8 = icmp sgt i32 %7, 0
  br i1 %8, label %.lr.ph, label %.critedge

.lr.ph:                                           ; preds = %4
  %9 = getelementptr inbounds nuw i8, ptr %2, i64 16
  %.phi.trans.insert.i = getelementptr inbounds nuw i8, ptr %3, i64 8
  br label %10

10:                                               ; preds = %.lr.ph, %48
  %11 = phi i32 [ %7, %.lr.ph ], [ %49, %48 ]
  %.015 = phi i32 [ 0, %.lr.ph ], [ %50, %48 ]
  %12 = lshr i32 %.015, 5
  %13 = zext nneg i32 %12 to i64
  %14 = getelementptr inbounds nuw [1 x i32], ptr %9, i64 0, i64 %13
  %15 = load i32, ptr %14, align 4, !tbaa !24
  %16 = and i32 %.015, 31
  %17 = shl nuw i32 1, %16
  %18 = and i32 %15, %17
  %.not = icmp eq i32 %18, 0
  br i1 %.not, label %48, label %19

19:                                               ; preds = %10
  %20 = load i32, ptr %5, align 4, !tbaa !36
  %21 = load i32, ptr %3, align 8, !tbaa !41
  %22 = icmp eq i32 %20, %21
  br i1 %22, label %23, label %.Vec_IntGrow.exit10_crit_edge.i

.Vec_IntGrow.exit10_crit_edge.i:                  ; preds = %19
  %.pre.i = load ptr, ptr %.phi.trans.insert.i, align 8, !tbaa !40
  br label %Vec_IntPush.exit

23:                                               ; preds = %19
  %24 = icmp slt i32 %20, 16
  br i1 %24, label %25, label %32

25:                                               ; preds = %23
  %26 = load ptr, ptr %.phi.trans.insert.i, align 8, !tbaa !40
  %.not9.i.i = icmp eq ptr %26, null
  br i1 %.not9.i.i, label %29, label %27

27:                                               ; preds = %25
  %28 = tail call dereferenceable_or_null(64) ptr @realloc(ptr noundef nonnull %26, i64 noundef 64) #9
  br label %Vec_IntGrow.exit.i

29:                                               ; preds = %25
  %30 = tail call noalias dereferenceable_or_null(64) ptr @malloc(i64 noundef 64) #8
  br label %Vec_IntGrow.exit.i

Vec_IntGrow.exit.i:                               ; preds = %29, %27
  %31 = phi ptr [ %28, %27 ], [ %30, %29 ]
  store ptr %31, ptr %.phi.trans.insert.i, align 8, !tbaa !40
  store i32 16, ptr %3, align 8, !tbaa !41
  br label %Vec_IntPush.exit

32:                                               ; preds = %23
  %33 = shl nuw nsw i32 %20, 1
  %34 = load ptr, ptr %.phi.trans.insert.i, align 8, !tbaa !40
  %.not9.i9.i = icmp eq ptr %34, null
  %35 = zext nneg i32 %33 to i64
  %36 = shl nuw nsw i64 %35, 2
  br i1 %.not9.i9.i, label %39, label %37

37:                                               ; preds = %32
  %38 = tail call ptr @realloc(ptr noundef nonnull %34, i64 noundef %36) #9
  br label %41

39:                                               ; preds = %32
  %40 = tail call noalias ptr @malloc(i64 noundef %36) #8
  br label %41

41:                                               ; preds = %39, %37
  %42 = phi ptr [ %38, %37 ], [ %40, %39 ]
  store ptr %42, ptr %.phi.trans.insert.i, align 8, !tbaa !40
  store i32 %33, ptr %3, align 8, !tbaa !41
  br label %Vec_IntPush.exit

Vec_IntPush.exit:                                 ; preds = %.Vec_IntGrow.exit10_crit_edge.i, %Vec_IntGrow.exit.i, %41
  %43 = phi ptr [ %.pre.i, %.Vec_IntGrow.exit10_crit_edge.i ], [ %42, %41 ], [ %31, %Vec_IntGrow.exit.i ]
  %44 = load i32, ptr %5, align 4, !tbaa !36
  %45 = add nsw i32 %44, 1
  store i32 %45, ptr %5, align 4, !tbaa !36
  %46 = sext i32 %44 to i64
  %47 = getelementptr inbounds i32, ptr %43, i64 %46
  store i32 %.015, ptr %47, align 4, !tbaa !24
  %.pre = load i32, ptr %6, align 8, !tbaa !43
  br label %48

48:                                               ; preds = %10, %Vec_IntPush.exit
  %49 = phi i32 [ %11, %10 ], [ %.pre, %Vec_IntPush.exit ]
  %50 = add nuw nsw i32 %.015, 1
  %51 = icmp slt i32 %50, %49
  br i1 %51, label %10, label %.critedge.loopexit, !llvm.loop !47

.critedge.loopexit:                               ; preds = %48
  %.pre16 = load i32, ptr %5, align 4, !tbaa !36
  br label %.critedge

.critedge:                                        ; preds = %.critedge.loopexit, %4
  %52 = phi i32 [ %.pre16, %.critedge.loopexit ], [ 0, %4 ]
  %53 = getelementptr inbounds nuw i8, ptr %3, i64 8
  %54 = load ptr, ptr %53, align 8, !tbaa !40
  %55 = tail call fastcc i32 @Dec_FactorTrivialTree_rec(ptr noundef %0, ptr noundef %54, i32 noundef %52, i32 noundef 0)
  ret i32 %55
}